target datalayout = "e-m:e-p270:32:32-p271:32:32-p272:64:64-i64:64-i128:128-f80:128-n8:16:32:64-S128"
target triple = "x86_64-pc-linux-gnu"

%struct._zend_executor_globals = type { %struct._zval_struct, %struct._zval_struct, [32 x ptr], ptr, ptr, %struct._zend_array, %struct._zend_array, ptr, i32, i8, %struct._zval_struct, i32, ptr, ptr, ptr, ptr, ptr, ptr, i64, ptr, ptr, i32, ptr, i32, i64, i32, i32, i32, i8, i8, %struct.zend_atomic_bool_s, %struct.zend_atomic_bool_s, ptr, i64, ptr, ptr, %struct._zend_array, %struct._zend_array, i32, i8, %struct._zval_struct, %struct._zval_struct, %struct._zend_stack, %struct._zend_stack, %struct._zend_stack, ptr, i32, i32, i64, ptr, ptr, ptr, %struct._zend_objects_store, %struct._zend_lazy_objects_store, ptr, ptr, ptr, [3 x %struct._zend_op], ptr, i8, i8, i64, i32, i32, ptr, [16 x %struct._HashTableIterator], ptr, %union._zend_function, %struct._zend_op, %struct._zend_array, i64, %struct.zend_get_gc_buffer, ptr, ptr, ptr, i64, i8, i32, ptr, ptr, i64, %struct._zend_call_stack, i64, i64, %struct._zend_strtod_state, [6 x ptr] }
%struct.zend_atomic_bool_s = type { i8 }
%struct._zval_struct = type { %union._zend_value, %union.anon, %union.anon.2 }
%union._zend_value = type { i64 }
%union.anon = type { i32 }
%union.anon.2 = type { i32 }
%struct._zend_stack = type { i32, i32, i32, ptr }
%struct._zend_objects_store = type { ptr, i32, i32, i32 }
%struct._zend_lazy_objects_store = type { %struct._zend_array }
%struct._HashTableIterator = type { ptr, i32, i32 }
%union._zend_function = type { %struct._zend_op_array }
%struct._zend_op_array = type { i8, [3 x i8], i32, ptr, ptr, ptr, i32, i32, ptr, ptr, ptr, ptr, i32, ptr, i32, i32, i32, ptr, ptr, ptr, ptr, ptr, i32, i32, ptr, ptr, ptr, i32, i32, i32, i32, ptr, ptr, [6 x ptr] }
%struct._zend_op = type { ptr, %union._znode_op, %union._znode_op, %union._znode_op, i32, i32, i8, i8, i8, i8 }
%union._znode_op = type { i32 }
%struct._zend_array = type { %struct._zend_refcounted_h, %union.anon.5, i32, %union.anon.7, i32, i32, i32, i32, i64, ptr }
%struct._zend_refcounted_h = type { i32, %union.anon.3 }
%union.anon.3 = type { i32 }
%union.anon.5 = type { i32 }
%union.anon.7 = type { ptr }
%struct.zend_get_gc_buffer = type { ptr, ptr, ptr }
%struct._zend_call_stack = type { ptr, i64 }
%struct._zend_strtod_state = type { [8 x ptr], ptr, ptr }
%struct._zend_object_handlers = type { i32, ptr, ptr, ptr, ptr, ptr, ptr, ptr, ptr, ptr, ptr, ptr, ptr, ptr, ptr, ptr, ptr, ptr, ptr, ptr, ptr, ptr, ptr, ptr, ptr }
%struct._zend_string = type { %struct._zend_refcounted_h, i64, i64, [1 x i8] }
%struct._zend_resource = type { %struct._zend_refcounted_h, i64, i32, ptr }
%struct._zend_object = type { %struct._zend_refcounted_h, i32, i32, ptr, ptr, ptr, [1 x %struct._zval_struct] }
%struct._zend_class_entry = type { i8, ptr, %union.anon.4, i32, i32, i32, i32, ptr, ptr, ptr, %struct._zend_array, %struct._zend_array, %struct._zend_array, ptr, ptr, ptr, ptr, ptr, ptr, ptr, ptr, ptr, ptr, ptr, ptr, ptr, ptr, ptr, ptr, ptr, ptr, ptr, %union.anon.8, ptr, ptr, ptr, ptr, i32, i32, i32, i32, %union.anon.9, ptr, ptr, ptr, ptr, i32, ptr, ptr, %union.anon.10 }
%union.anon.4 = type { ptr }
%union.anon.8 = type { ptr }
%union.anon.9 = type { ptr }
%union.anon.10 = type { %struct.anon.11 }
%struct.anon.11 = type { ptr, i32, i32 }
%struct.anon.0 = type { i8, i8, %union.anon.1 }
%union.anon.1 = type { i16 }

@.str = private unnamed_addr constant [48 x i8] c"Object of class %s could not be converted to %s\00", align 1
@executor_globals = external global %struct._zend_executor_globals, align 8

; Function Attrs: alwaysinline nounwind uwtable
define internal zeroext i8 @is_numeric_string_ex(ptr noundef %0, i64 noundef %1, ptr noundef %2, ptr noundef %3, i1 noundef zeroext %4, ptr noundef %5, ptr noundef %6) #1 {
  %8 = alloca i8, align 1
  %9 = alloca ptr, align 8
  %10 = alloca i64, align 8
  %11 = alloca ptr, align 8
  %12 = alloca ptr, align 8
  %13 = alloca i8, align 1
  %14 = alloca ptr, align 8
  %15 = alloca ptr, align 8
  store ptr %0, ptr %9, align 8, !tbaa !4
  store i64 %1, ptr %10, align 8, !tbaa !9
  store ptr %2, ptr %11, align 8, !tbaa !47
  store ptr %3, ptr %12, align 8, !tbaa !49
  %16 = zext i1 %4 to i8
  store i8 %16, ptr %13, align 1, !tbaa !51
  store ptr %5, ptr %14, align 8, !tbaa !126
  store ptr %6, ptr %15, align 8, !tbaa !55
  %17 = load ptr, ptr %9, align 8, !tbaa !4
  %18 = load i8, ptr %17, align 1, !tbaa !11
  %19 = sext i8 %18 to i32
  %20 = icmp sgt i32 %19, 57
  br i1 %20, label %21, label %22

21:                                               ; preds = %7
  store i8 0, ptr %8, align 1
  br label %32

22:                                               ; preds = %7
  %23 = load ptr, ptr %9, align 8, !tbaa !4
  %24 = load i64, ptr %10, align 8, !tbaa !9
  %25 = load ptr, ptr %11, align 8, !tbaa !47
  %26 = load ptr, ptr %12, align 8, !tbaa !49
  %27 = load i8, ptr %13, align 1, !tbaa !51, !range !53, !noundef !54
  %28 = trunc i8 %27 to i1
  %29 = load ptr, ptr %14, align 8, !tbaa !126
  %30 = load ptr, ptr %15, align 8, !tbaa !55
  %31 = call zeroext i8 @_is_numeric_string_ex(ptr noundef %23, i64 noundef %24, ptr noundef %25, ptr noundef %26, i1 noundef zeroext %28, ptr noundef %29, ptr noundef %30)
  store i8 %31, ptr %8, align 1
  br label %32

32:                                               ; preds = %22, %21
  %33 = load i8, ptr %8, align 1
  ret i8 %33
}

; Function Attrs: alwaysinline nounwind uwtable
define internal zeroext i8 @is_numeric_string(ptr noundef %0, i64 noundef %1, ptr noundef %2, ptr noundef %3, i1 noundef zeroext %4) #1 {
  %6 = alloca ptr, align 8
  %7 = alloca i64, align 8
  %8 = alloca ptr, align 8
  %9 = alloca ptr, align 8
  %10 = alloca i8, align 1
  store ptr %0, ptr %6, align 8, !tbaa !4
  store i64 %1, ptr %7, align 8, !tbaa !9
  store ptr %2, ptr %8, align 8, !tbaa !47
  store ptr %3, ptr %9, align 8, !tbaa !49
  %11 = zext i1 %4 to i8
  store i8 %11, ptr %10, align 1, !tbaa !51
  %12 = load ptr, ptr %6, align 8, !tbaa !4
  %13 = load i64, ptr %7, align 8, !tbaa !9
  %14 = load ptr, ptr %8, align 8, !tbaa !47
  %15 = load ptr, ptr %9, align 8, !tbaa !49
  %16 = load i8, ptr %10, align 1, !tbaa !51, !range !53, !noundef !54
  %17 = trunc i8 %16 to i1
  %18 = call zeroext i8 @is_numeric_string_ex(ptr noundef %12, i64 noundef %13, ptr noundef %14, ptr noundef %15, i1 noundef zeroext %17, ptr noundef null, ptr noundef null)
  ret i8 %18
}

; Function Attrs: alwaysinline nounwind uwtable
define internal zeroext i8 @zval_get_type(ptr noundef %0) #1 {
  %2 = alloca ptr, align 8
  store ptr %0, ptr %2, align 8, !tbaa !12
  %3 = load ptr, ptr %2, align 8, !tbaa !12
  %4 = getelementptr inbounds nuw %struct._zval_struct, ptr %3, i32 0, i32 1
  %5 = getelementptr inbounds nuw %struct.anon.0, ptr %4, i32 0, i32 0
  %6 = load i8, ptr %5, align 8, !tbaa !11
  ret i8 %6
}

; Function Attrs: noinline nounwind uwtable
define internal ptr @_zendi_convert_scalar_to_number_silent(ptr noundef %0, ptr noundef %1) #5 {
  %3 = alloca ptr, align 8
  %4 = alloca ptr, align 8
  %5 = alloca ptr, align 8
  %6 = alloca ptr, align 8
  %7 = alloca ptr, align 8
  %8 = alloca ptr, align 8
  %9 = alloca ptr, align 8
  %10 = alloca ptr, align 8
  store ptr %0, ptr %4, align 8, !tbaa !12
  store ptr %1, ptr %5, align 8, !tbaa !12
  %11 = load ptr, ptr %4, align 8, !tbaa !12
  %12 = call zeroext i8 @zval_get_type(ptr noundef %11)
  %13 = zext i8 %12 to i32
  switch i32 %13, label %143 [
    i32 1, label %14
    i32 2, label %14
    i32 3, label %23
    i32 6, label %32
    i32 9, label %62
    i32 8, label %76
    i32 4, label %142
    i32 5, label %142
  ]

14:                                               ; preds = %2, %2
  br label %15

15:                                               ; preds = %14
  call void @llvm.lifetime.start.p0(i64 8, ptr %6) #20
  %16 = load ptr, ptr %5, align 8, !tbaa !12
  store ptr %16, ptr %6, align 8, !tbaa !12
  %17 = load ptr, ptr %6, align 8, !tbaa !12
  %18 = getelementptr inbounds nuw %struct._zval_struct, ptr %17, i32 0, i32 0
  store i64 0, ptr %18, align 8, !tbaa !11
  %19 = load ptr, ptr %6, align 8, !tbaa !12
  %20 = getelementptr inbounds nuw %struct._zval_struct, ptr %19, i32 0, i32 1
  store i32 4, ptr %20, align 8, !tbaa !11
  call void @llvm.lifetime.end.p0(i64 8, ptr %6) #20
  br label %21

21:                                               ; preds = %15
  %22 = load ptr, ptr %5, align 8, !tbaa !12
  store ptr %22, ptr %3, align 8
  br label %145

23:                                               ; preds = %2
  br label %24

24:                                               ; preds = %23
  call void @llvm.lifetime.start.p0(i64 8, ptr %7) #20
  %25 = load ptr, ptr %5, align 8, !tbaa !12
  store ptr %25, ptr %7, align 8, !tbaa !12
  %26 = load ptr, ptr %7, align 8, !tbaa !12
  %27 = getelementptr inbounds nuw %struct._zval_struct, ptr %26, i32 0, i32 0
  store i64 1, ptr %27, align 8, !tbaa !11
  %28 = load ptr, ptr %7, align 8, !tbaa !12
  %29 = getelementptr inbounds nuw %struct._zval_struct, ptr %28, i32 0, i32 1
  store i32 4, ptr %29, align 8, !tbaa !11
  call void @llvm.lifetime.end.p0(i64 8, ptr %7) #20
  br label %30

30:                                               ; preds = %24
  %31 = load ptr, ptr %5, align 8, !tbaa !12
  store ptr %31, ptr %3, align 8
  br label %145

32:                                               ; preds = %2
  %33 = load ptr, ptr %4, align 8, !tbaa !12
  %34 = getelementptr inbounds nuw %struct._zval_struct, ptr %33, i32 0, i32 0
  %35 = load ptr, ptr %34, align 8, !tbaa !11
  %36 = getelementptr inbounds nuw %struct._zend_string, ptr %35, i32 0, i32 3
  %37 = getelementptr inbounds [1 x i8], ptr %36, i64 0, i64 0
  %38 = load ptr, ptr %4, align 8, !tbaa !12
  %39 = getelementptr inbounds nuw %struct._zval_struct, ptr %38, i32 0, i32 0
  %40 = load ptr, ptr %39, align 8, !tbaa !11
  %41 = getelementptr inbounds nuw %struct._zend_string, ptr %40, i32 0, i32 2
  %42 = load i64, ptr %41, align 8, !tbaa !16
  %43 = load ptr, ptr %5, align 8, !tbaa !12
  %44 = getelementptr inbounds nuw %struct._zval_struct, ptr %43, i32 0, i32 0
  %45 = load ptr, ptr %5, align 8, !tbaa !12
  %46 = getelementptr inbounds nuw %struct._zval_struct, ptr %45, i32 0, i32 0
  %47 = call zeroext i8 @is_numeric_string(ptr noundef %37, i64 noundef %42, ptr noundef %44, ptr noundef %46, i1 noundef zeroext true)
  %48 = zext i8 %47 to i32
  %49 = load ptr, ptr %5, align 8, !tbaa !12
  %50 = getelementptr inbounds nuw %struct._zval_struct, ptr %49, i32 0, i32 1
  store i32 %48, ptr %50, align 8, !tbaa !11
  %51 = icmp eq i32 %48, 0
  br i1 %51, label %52, label %60

52:                                               ; preds = %32
  br label %53

53:                                               ; preds = %52
  call void @llvm.lifetime.start.p0(i64 8, ptr %8) #20
  %54 = load ptr, ptr %5, align 8, !tbaa !12
  store ptr %54, ptr %8, align 8, !tbaa !12
  %55 = load ptr, ptr %8, align 8, !tbaa !12
  %56 = getelementptr inbounds nuw %struct._zval_struct, ptr %55, i32 0, i32 0
  store i64 0, ptr %56, align 8, !tbaa !11
  %57 = load ptr, ptr %8, align 8, !tbaa !12
  %58 = getelementptr inbounds nuw %struct._zval_struct, ptr %57, i32 0, i32 1
  store i32 4, ptr %58, align 8, !tbaa !11
  call void @llvm.lifetime.end.p0(i64 8, ptr %8) #20
  br label %59

59:                                               ; preds = %53
  br label %60

60:                                               ; preds = %59, %32
  %61 = load ptr, ptr %5, align 8, !tbaa !12
  store ptr %61, ptr %3, align 8
  br label %145

62:                                               ; preds = %2
  br label %63

63:                                               ; preds = %62
  call void @llvm.lifetime.start.p0(i64 8, ptr %9) #20
  %64 = load ptr, ptr %5, align 8, !tbaa !12
  store ptr %64, ptr %9, align 8, !tbaa !12
  %65 = load ptr, ptr %4, align 8, !tbaa !12
  %66 = getelementptr inbounds nuw %struct._zval_struct, ptr %65, i32 0, i32 0
  %67 = load ptr, ptr %66, align 8, !tbaa !11
  %68 = getelementptr inbounds nuw %struct._zend_resource, ptr %67, i32 0, i32 1
  %69 = load i64, ptr %68, align 8, !tbaa !20
  %70 = load ptr, ptr %9, align 8, !tbaa !12
  %71 = getelementptr inbounds nuw %struct._zval_struct, ptr %70, i32 0, i32 0
  store i64 %69, ptr %71, align 8, !tbaa !11
  %72 = load ptr, ptr %9, align 8, !tbaa !12
  %73 = getelementptr inbounds nuw %struct._zval_struct, ptr %72, i32 0, i32 1
  store i32 4, ptr %73, align 8, !tbaa !11
  call void @llvm.lifetime.end.p0(i64 8, ptr %9) #20
  br label %74

74:                                               ; preds = %63
  %75 = load ptr, ptr %5, align 8, !tbaa !12
  store ptr %75, ptr %3, align 8
  br label %145

76:                                               ; preds = %2
  br label %77

77:                                               ; preds = %76
  %78 = load ptr, ptr %5, align 8, !tbaa !12
  %79 = getelementptr inbounds nuw %struct._zval_struct, ptr %78, i32 0, i32 1
  store i32 0, ptr %79, align 8, !tbaa !11
  br label %80

80:                                               ; preds = %77
  %81 = load ptr, ptr %4, align 8, !tbaa !12
  %82 = getelementptr inbounds nuw %struct._zval_struct, ptr %81, i32 0, i32 0
  %83 = load ptr, ptr %82, align 8, !tbaa !11
  %84 = getelementptr inbounds nuw %struct._zend_object, ptr %83, i32 0, i32 4
  %85 = load ptr, ptr %84, align 8, !tbaa !22
  %86 = getelementptr inbounds nuw %struct._zend_object_handlers, ptr %85, i32 0, i32 17
  %87 = load ptr, ptr %86, align 8, !tbaa !27
  %88 = load ptr, ptr %4, align 8, !tbaa !12
  %89 = getelementptr inbounds nuw %struct._zval_struct, ptr %88, i32 0, i32 0
  %90 = load ptr, ptr %89, align 8, !tbaa !11
  %91 = load ptr, ptr %5, align 8, !tbaa !12
  %92 = call i32 %87(ptr noundef %90, ptr noundef %91, i32 noundef 19)
  %93 = icmp eq i32 %92, -1
  br i1 %93, label %94, label %105

94:                                               ; preds = %80
  %95 = load ptr, ptr %4, align 8, !tbaa !12
  %96 = getelementptr inbounds nuw %struct._zval_struct, ptr %95, i32 0, i32 0
  %97 = load ptr, ptr %96, align 8, !tbaa !11
  %98 = getelementptr inbounds nuw %struct._zend_object, ptr %97, i32 0, i32 3
  %99 = load ptr, ptr %98, align 8, !tbaa !29
  %100 = getelementptr inbounds nuw %struct._zend_class_entry, ptr %99, i32 0, i32 1
  %101 = load ptr, ptr %100, align 8, !tbaa !30
  %102 = getelementptr inbounds nuw %struct._zend_string, ptr %101, i32 0, i32 3
  %103 = getelementptr inbounds [1 x i8], ptr %102, i64 0, i64 0
  %104 = call ptr @zend_get_type_by_const(i32 noundef 19)
  call void (i32, ptr, ...) @zend_error(i32 noundef 2, ptr noundef @.str, ptr noundef %103, ptr noundef %104)
  br label %105

105:                                              ; preds = %94, %80
  %106 = load ptr, ptr getelementptr inbounds nuw (%struct._zend_executor_globals, ptr @executor_globals, i32 0, i32 54), align 8, !tbaa !59
  %107 = icmp ne ptr %106, null
  %108 = xor i1 %107, true
  %109 = xor i1 %108, true
  %110 = zext i1 %109 to i32
  %111 = sext i32 %110 to i64
  %112 = call i64 @llvm.expect.i64(i64 %111, i64 0)
  %113 = icmp ne i64 %112, 0
  br i1 %113, label %132, label %114

114:                                              ; preds = %105
  %115 = load ptr, ptr %5, align 8, !tbaa !12
  %116 = call zeroext i8 @zval_get_type(ptr noundef %115)
  %117 = zext i8 %116 to i32
  %118 = icmp ne i32 %117, 4
  br i1 %118, label %119, label %124

119:                                              ; preds = %114
  %120 = load ptr, ptr %5, align 8, !tbaa !12
  %121 = call zeroext i8 @zval_get_type(ptr noundef %120)
  %122 = zext i8 %121 to i32
  %123 = icmp ne i32 %122, 5
  br label %124

124:                                              ; preds = %119, %114
  %125 = phi i1 [ false, %114 ], [ %123, %119 ]
  %126 = xor i1 %125, true
  %127 = xor i1 %126, true
  %128 = zext i1 %127 to i32
  %129 = sext i32 %128 to i64
  %130 = call i64 @llvm.expect.i64(i64 %129, i64 0)
  %131 = icmp ne i64 %130, 0
  br i1 %131, label %132, label %140

132:                                              ; preds = %124, %105
  br label %133

133:                                              ; preds = %132
  call void @llvm.lifetime.start.p0(i64 8, ptr %10) #20
  %134 = load ptr, ptr %5, align 8, !tbaa !12
  store ptr %134, ptr %10, align 8, !tbaa !12
  %135 = load ptr, ptr %10, align 8, !tbaa !12
  %136 = getelementptr inbounds nuw %struct._zval_struct, ptr %135, i32 0, i32 0
  store i64 1, ptr %136, align 8, !tbaa !11
  %137 = load ptr, ptr %10, align 8, !tbaa !12
  %138 = getelementptr inbounds nuw %struct._zval_struct, ptr %137, i32 0, i32 1
  store i32 4, ptr %138, align 8, !tbaa !11
  call void @llvm.lifetime.end.p0(i64 8, ptr %10) #20
  br label %139

139:                                              ; preds = %133
  br label %140

140:                                              ; preds = %139, %124
  %141 = load ptr, ptr %5, align 8, !tbaa !12
  store ptr %141, ptr %3, align 8
  br label %145

142:                                              ; preds = %2, %2
  br label %143

143:                                              ; preds = %2, %142
  %144 = load ptr, ptr %4, align 8, !tbaa !12
  store ptr %144, ptr %3, align 8
  br label %145

145:                                              ; preds = %143, %140, %74, %60, %30, %21
  %146 = load ptr, ptr %3, align 8
  ret ptr %146
}