; Function Attrs: noinline nounwind uwtable
define internal fastcc noundef ptr @_zendi_convert_scalar_to_number_silent(ptr noundef readonly captures(ret: address, provenance) %0, ptr noundef nonnull %1) unnamed_addr #4 {
  %3 = getelementptr inbounds nuw i8, ptr %0, i64 8
  %4 = load i8, ptr %3, align 8, !tbaa !4
  switch i8 %4, label %.critedge [
    i8 1, label %5
    i8 2, label %5
    i8 3, label %7
    i8 6, label %9
    i8 9, label %23
    i8 8, label %28
  ]

5:                                                ; preds = %2, %2
  store i64 0, ptr %1, align 8, !tbaa !4
  %6 = getelementptr inbounds nuw i8, ptr %1, i64 8
  store i32 4, ptr %6, align 8, !tbaa !4
  br label %.critedge

7:                                                ; preds = %2
  store i64 1, ptr %1, align 8, !tbaa !4
  %8 = getelementptr inbounds nuw i8, ptr %1, i64 8
  store i32 4, ptr %8, align 8, !tbaa !4
  br label %.critedge

9:                                                ; preds = %2
  %10 = load ptr, ptr %0, align 8, !tbaa !4
  %11 = getelementptr inbounds nuw i8, ptr %10, i64 24
  %12 = load i8, ptr %11, align 1, !tbaa !4
  %13 = icmp sgt i8 %12, 57
  br i1 %13, label %is_numeric_string_ex.exit.thread, label %is_numeric_string_ex.exit

is_numeric_string_ex.exit.thread:                 ; preds = %9
  %14 = getelementptr inbounds nuw i8, ptr %1, i64 8
  br label %21

is_numeric_string_ex.exit:                        ; preds = %9
  %15 = getelementptr inbounds nuw i8, ptr %10, i64 16
  %16 = load i64, ptr %15, align 8, !tbaa !10
  %17 = tail call zeroext i8 @_is_numeric_string_ex(ptr noundef nonnull %11, i64 noundef %16, ptr noundef nonnull %1, ptr noundef nonnull %1, i1 noundef zeroext true, ptr noundef null, ptr noundef null)
  %18 = zext nneg i8 %17 to i32
  %19 = getelementptr inbounds nuw i8, ptr %1, i64 8
  store i32 %18, ptr %19, align 8, !tbaa !4
  %20 = icmp eq i8 %17, 0
  br i1 %20, label %21, label %.critedge

21:                                               ; preds = %is_numeric_string_ex.exit.thread, %is_numeric_string_ex.exit
  %22 = phi ptr [ %14, %is_numeric_string_ex.exit.thread ], [ %19, %is_numeric_string_ex.exit ]
  store i64 0, ptr %1, align 8, !tbaa !4
  store i32 4, ptr %22, align 8, !tbaa !4
  br label %.critedge

23:                                               ; preds = %2
  %24 = load ptr, ptr %0, align 8, !tbaa !4
  %25 = getelementptr inbounds nuw i8, ptr %24, i64 8
  %26 = load i64, ptr %25, align 8, !tbaa !13
  store i64 %26, ptr %1, align 8, !tbaa !4
  %27 = getelementptr inbounds nuw i8, ptr %1, i64 8
  store i32 4, ptr %27, align 8, !tbaa !4
  br label %.critedge

28:                                               ; preds = %2
  %29 = getelementptr inbounds nuw i8, ptr %1, i64 8
  store i32 0, ptr %29, align 8, !tbaa !4
  %30 = load ptr, ptr %0, align 8, !tbaa !4
  %31 = getelementptr inbounds nuw i8, ptr %30, i64 24
  %32 = load ptr, ptr %31, align 8, !tbaa !16
  %33 = getelementptr inbounds nuw i8, ptr %32, i64 136
  %34 = load ptr, ptr %33, align 8, !tbaa !21
  %35 = tail call i32 %34(ptr noundef %30, ptr noundef nonnull %1, i32 noundef 19) #28
  %36 = icmp eq i32 %35, -1
  br i1 %36, label %37, label %45

37:                                               ; preds = %28
  %38 = load ptr, ptr %0, align 8, !tbaa !4
  %39 = getelementptr inbounds nuw i8, ptr %38, i64 16
  %40 = load ptr, ptr %39, align 8, !tbaa !23
  %41 = getelementptr inbounds nuw i8, ptr %40, i64 8
  %42 = load ptr, ptr %41, align 8, !tbaa !24
  %43 = getelementptr inbounds nuw i8, ptr %42, i64 24
  %44 = tail call ptr @zend_get_type_by_const(i32 noundef 19) #28
  tail call void (i32, ptr, ...) @zend_error(i32 noundef 2, ptr noundef nonnull @.str, ptr noundef nonnull %43, ptr noundef %44) #28
  br label %45

45:                                               ; preds = %37, %28
  %46 = load ptr, ptr getelementptr inbounds nuw (i8, ptr @executor_globals, i64 960), align 8, !tbaa !42
  %.not = icmp eq ptr %46, null
  br i1 %.not, label %47, label %50, !prof !38

47:                                               ; preds = %45
  %48 = load i8, ptr %29, align 8, !tbaa !4
  %49 = and i8 %48, -2
  %switch = icmp eq i8 %49, 4
  br i1 %switch, label %.critedge, label %50, !prof !79

50:                                               ; preds = %47, %45
  store i64 1, ptr %1, align 8, !tbaa !4
  store i32 4, ptr %29, align 8, !tbaa !4
  br label %.critedge

.critedge:                                        ; preds = %47, %2, %50, %is_numeric_string_ex.exit, %21, %23, %7, %5
  %.0 = phi ptr [ %1, %23 ], [ %1, %7 ], [ %1, %5 ], [ %1, %21 ], [ %1, %is_numeric_string_ex.exit ], [ %1, %50 ], [ %0, %2 ], [ %1, %47 ]
  ret ptr %.0
}